target datalayout = "e-m:e-p270:32:32-p271:32:32-p272:64:64-i64:64-i128:128-f80:128-n8:16:32:64-S128"
target triple = "x86_64-pc-linux-gnu"

%"class.pxrInternal_v0_24__pxrReserved__::GfQuatf" = type { %"class.pxrInternal_v0_24__pxrReserved__::GfVec3f", float }
%"class.pxrInternal_v0_24__pxrReserved__::GfVec3f" = type { [3 x float] }

; Function Attrs: mustprogress nounwind uwtable
define linkonce_odr void @_ZN32pxrInternal_v0_24__pxrReserved__7GfVec3fC2Efff(ptr noundef nonnull align 4 dereferenceable(12) %0, float noundef %1, float noundef %2, float noundef %3) unnamed_addr #2 comdat align 2 {
  %5 = alloca ptr, align 8
  %6 = alloca float, align 4
  %7 = alloca float, align 4
  %8 = alloca float, align 4
  store ptr %0, ptr %5, align 8
  store float %1, ptr %6, align 4
  store float %2, ptr %7, align 4
  store float %3, ptr %8, align 4
  %9 = load ptr, ptr %5, align 8
  %10 = getelementptr inbounds nuw %"class.pxrInternal_v0_24__pxrReserved__::GfVec3f", ptr %9, i32 0, i32 0
  %11 = load float, ptr %6, align 4
  store float %11, ptr %10, align 4
  %12 = getelementptr inbounds float, ptr %10, i64 1
  %13 = load float, ptr %7, align 4
  store float %13, ptr %12, align 4
  %14 = getelementptr inbounds float, ptr %10, i64 2
  %15 = load float, ptr %8, align 4
  store float %15, ptr %14, align 4
  ret void
}

; Function Attrs: mustprogress uwtable
define linkonce_odr void @_ZN32pxrInternal_v0_24__pxrReserved__7GfQuatfC2Effff(ptr noundef nonnull align 4 dereferenceable(16) %0, float noundef %1, float noundef %2, float noundef %3, float noundef %4) unnamed_addr #0 comdat align 2 {
  %6 = alloca ptr, align 8
  %7 = alloca float, align 4
  %8 = alloca float, align 4
  %9 = alloca float, align 4
  %10 = alloca float, align 4
  store ptr %0, ptr %6, align 8
  store float %1, ptr %7, align 4
  store float %2, ptr %8, align 4
  store float %3, ptr %9, align 4
  store float %4, ptr %10, align 4
  %11 = load ptr, ptr %6, align 8
  %12 = getelementptr inbounds nuw %"class.pxrInternal_v0_24__pxrReserved__::GfQuatf", ptr %11, i32 0, i32 0
  %13 = load float, ptr %8, align 4
  %14 = load float, ptr %9, align 4
  %15 = load float, ptr %10, align 4
  call void @_ZN32pxrInternal_v0_24__pxrReserved__7GfVec3fC2Efff(ptr noundef nonnull align 4 dereferenceable(12) %12, float noundef %13, float noundef %14, float noundef %15)
  %16 = getelementptr inbounds nuw %"class.pxrInternal_v0_24__pxrReserved__::GfQuatf", ptr %11, i32 0, i32 1
  %17 = load float, ptr %7, align 4
  store float %17, ptr %16, align 4
  ret void
}

; Function Attrs: mustprogress uwtable
define { <2 x float>, <2 x float> } @_ZN32pxrInternal_v0_24__pxrReserved__25UsdPhysicsIndexedRotationEjff(i32 noundef %0, float noundef %1, float noundef %2) #0 {
  %4 = alloca %"class.pxrInternal_v0_24__pxrReserved__::GfQuatf", align 4
  %5 = alloca i32, align 4
  %6 = alloca float, align 4
  %7 = alloca float, align 4
  %8 = alloca [3 x float], align 4
  store i32 %0, ptr %5, align 4
  store float %1, ptr %6, align 4
  store float %2, ptr %7, align 4
  call void @llvm.memset.p0.i64(ptr align 4 %8, i8 0, i64 12, i1 false)
  %9 = load float, ptr %6, align 4
  %10 = load i32, ptr %5, align 4
  %11 = zext i32 %10 to i64
  %12 = getelementptr inbounds [3 x float], ptr %8, i64 0, i64 %11
  store float %9, ptr %12, align 4
  %13 = load float, ptr %7, align 4
  %14 = getelementptr inbounds [3 x float], ptr %8, i64 0, i64 0
  %15 = load float, ptr %14, align 4
  %16 = getelementptr inbounds [3 x float], ptr %8, i64 0, i64 1
  %17 = load float, ptr %16, align 4
  %18 = getelementptr inbounds [3 x float], ptr %8, i64 0, i64 2
  %19 = load float, ptr %18, align 4
  call void @_ZN32pxrInternal_v0_24__pxrReserved__7GfQuatfC2Effff(ptr noundef nonnull align 4 dereferenceable(16) %4, float noundef %13, float noundef %15, float noundef %17, float noundef %19)
  %20 = load { <2 x float>, <2 x float> }, ptr %4, align 4
  ret { <2 x float>, <2 x float> } %20
}