; Function Attrs: mustprogress nofree norecurse nosync nounwind willreturn memory(none) uwtable
define { <2 x float>, <2 x float> } @_ZN32pxrInternal_v0_24__pxrReserved__25UsdPhysicsIndexedRotationEjff(i32 noundef %0, float noundef %1, float noundef %2) local_unnamed_addr #5 {
  %4 = alloca [3 x float], align 4
  call void @llvm.memset.p0.i64(ptr noundef nonnull align 4 dereferenceable(12) %4, i8 0, i64 12, i1 false)
  %5 = zext i32 %0 to i64
  %6 = getelementptr inbounds nuw [3 x float], ptr %4, i64 0, i64 %5
  store float %1, ptr %6, align 4
  %7 = load float, ptr %4, align 4
  %8 = getelementptr inbounds nuw i8, ptr %4, i64 4
  %9 = load float, ptr %8, align 4
  %10 = getelementptr inbounds nuw i8, ptr %4, i64 8
  %11 = load float, ptr %10, align 4
  %.sroa.0.0.vec.insert = insertelement <2 x float> poison, float %7, i64 0
  %.sroa.0.4.vec.insert = insertelement <2 x float> %.sroa.0.0.vec.insert, float %9, i64 1
  %.sroa.3.8.vec.insert = insertelement <2 x float> poison, float %11, i64 0
  %.sroa.3.12.vec.insert = insertelement <2 x float> %.sroa.3.8.vec.insert, float %2, i64 1
  %.fca.0.insert = insertvalue { <2 x float>, <2 x float> } poison, <2 x float> %.sroa.0.4.vec.insert, 0
  %.fca.1.insert = insertvalue { <2 x float>, <2 x float> } %.fca.0.insert, <2 x float> %.sroa.3.12.vec.insert, 1
  ret { <2 x float>, <2 x float> } %.fca.1.insert
}